target datalayout = "e-m:e-p270:32:32-p271:32:32-p272:64:64-i64:64-i128:128-f80:128-n8:16:32:64-S128"
target triple = "x86_64-pc-linux-gnu"

%struct.mbedtls_cipher_context_t = type { ptr, i32, i32, ptr, ptr, [16 x i8], i64, [16 x i8], i64, ptr, ptr }
%struct.mbedtls_cipher_info_t = type { ptr, i32 }

; Function Attrs: inlinehint nounwind uwtable
define internal i32 @mbedtls_ct_uint_if_else_0(i64 noundef %0, i32 noundef %1) #3 {
  %3 = alloca i64, align 8
  %4 = alloca i32, align 4
  store i64 %0, ptr %3, align 8, !tbaa !10
  store i32 %1, ptr %4, align 4, !tbaa !17
  %5 = load i64, ptr %3, align 8, !tbaa !10
  %6 = load i32, ptr %4, align 4, !tbaa !17
  %7 = zext i32 %6 to i64
  %8 = and i64 %5, %7
  %9 = trunc i64 %8 to i32
  ret i32 %9
}

; Function Attrs: inlinehint nounwind uwtable
define internal i64 @mbedtls_ct_bool(i64 noundef %0) #3 {
  %2 = alloca i64, align 8
  %3 = alloca i64, align 8
  store i64 %0, ptr %2, align 8, !tbaa !10
  call void @llvm.lifetime.start.p0(i64 8, ptr %3) #11
  %4 = load i64, ptr %2, align 8, !tbaa !10
  %5 = call i64 asm sideeffect "mov  $1, $0                                \0A\09neg  $0                                      \0A\09or   $1, $0                                \0A\09sar  $$63, $0                                 \0A\09", "=&{ax},{di},~{dirflag},~{fpsr},~{flags}"(i64 %4) #11, !srcloc !38
  store i64 %5, ptr %3, align 8, !tbaa !10
  %6 = load i64, ptr %3, align 8, !tbaa !10
  call void @llvm.lifetime.end.p0(i64 8, ptr %3) #11
  ret i64 %6
}

; Function Attrs: alwaysinline nounwind uwtable
define internal void @mbedtls_put_unaligned_uint32(ptr noundef %0, i32 noundef %1) #7 {
  %3 = alloca ptr, align 8
  %4 = alloca i32, align 4
  store ptr %0, ptr %3, align 8, !tbaa !36
  store i32 %1, ptr %4, align 4, !tbaa !17
  %5 = load ptr, ptr %3, align 8, !tbaa !36
  call void @llvm.memcpy.p0.p0.i64(ptr align 1 %5, ptr align 4 %4, i64 4, i1 false)
  ret void
}

; Function Attrs: alwaysinline nounwind uwtable
define internal i32 @mbedtls_get_unaligned_uint32(ptr noundef %0) #7 {
  %2 = alloca ptr, align 8
  %3 = alloca i32, align 4
  store ptr %0, ptr %2, align 8, !tbaa !36
  call void @llvm.lifetime.start.p0(i64 4, ptr %3) #11
  %4 = load ptr, ptr %2, align 8, !tbaa !36
  call void @llvm.memcpy.p0.p0.i64(ptr align 4 %3, ptr align 1 %4, i64 4, i1 false)
  %5 = load i32, ptr %3, align 4, !tbaa !17
  call void @llvm.lifetime.end.p0(i64 4, ptr %3) #11
  ret i32 %5
}

; Function Attrs: nounwind uwtable
define internal i32 @cmac_multiply_by_u(ptr noundef %0, ptr noundef %1, i64 noundef %2) #0 {
  %4 = alloca i32, align 4
  %5 = alloca ptr, align 8
  %6 = alloca ptr, align 8
  %7 = alloca i64, align 8
  %8 = alloca i8, align 1
  %9 = alloca i8, align 1
  %10 = alloca i32, align 4
  %11 = alloca i32, align 4
  %12 = alloca i8, align 1
  %13 = alloca i32, align 4
  %14 = alloca i32, align 4
  %15 = alloca i32, align 4
  store ptr %0, ptr %5, align 8, !tbaa !8
  store ptr %1, ptr %6, align 8, !tbaa !8
  store i64 %2, ptr %7, align 8, !tbaa !10
  call void @llvm.lifetime.start.p0(i64 1, ptr %8) #11
  store i8 -121, ptr %8, align 1, !tbaa !26
  call void @llvm.lifetime.start.p0(i64 1, ptr %9) #11
  call void @llvm.lifetime.start.p0(i64 4, ptr %10) #11
  store i32 0, ptr %10, align 4, !tbaa !17
  call void @llvm.lifetime.start.p0(i64 4, ptr %11) #11
  %16 = load i64, ptr %7, align 8, !tbaa !10
  %17 = icmp eq i64 %16, 16
  br i1 %17, label %18, label %19

18:                                               ; preds = %3
  store i8 -121, ptr %9, align 1, !tbaa !26
  br label %25

19:                                               ; preds = %3
  %20 = load i64, ptr %7, align 8, !tbaa !10
  %21 = icmp eq i64 %20, 8
  br i1 %21, label %22, label %23

22:                                               ; preds = %19
  call void @llvm.lifetime.start.p0(i64 1, ptr %12) #11
  store i8 27, ptr %12, align 1, !tbaa !26
  store i8 27, ptr %9, align 1, !tbaa !26
  call void @llvm.lifetime.end.p0(i64 1, ptr %12) #11
  br label %24

23:                                               ; preds = %19
  store i32 -24832, ptr %4, align 4
  store i32 1, ptr %13, align 4
  br label %79

24:                                               ; preds = %22
  br label %25

25:                                               ; preds = %24, %18
  %26 = load i64, ptr %7, align 8, !tbaa !10
  %27 = trunc i64 %26 to i32
  %28 = sub nsw i32 %27, 4
  store i32 %28, ptr %11, align 4, !tbaa !17
  br label %29

29:                                               ; preds = %54, %25
  %30 = load i32, ptr %11, align 4, !tbaa !17
  %31 = icmp sge i32 %30, 0
  br i1 %31, label %32, label %57

32:                                               ; preds = %29
  call void @llvm.lifetime.start.p0(i64 4, ptr %14) #11
  %33 = load ptr, ptr %6, align 8, !tbaa !8
  %34 = load i32, ptr %11, align 4, !tbaa !17
  %35 = sext i32 %34 to i64
  %36 = getelementptr inbounds i8, ptr %33, i64 %35
  %37 = getelementptr inbounds i8, ptr %36, i64 0
  %38 = call i32 @mbedtls_get_unaligned_uint32(ptr noundef %37)
  %39 = call i32 @llvm.bswap.i32(i32 %38)
  store i32 %39, ptr %14, align 4, !tbaa !17
  call void @llvm.lifetime.start.p0(i64 4, ptr %15) #11
  %40 = load i32, ptr %14, align 4, !tbaa !17
  %41 = lshr i32 %40, 31
  store i32 %41, ptr %15, align 4, !tbaa !17
  %42 = load i32, ptr %14, align 4, !tbaa !17
  %43 = shl i32 %42, 1
  %44 = load i32, ptr %10, align 4, !tbaa !17
  %45 = or i32 %43, %44
  store i32 %45, ptr %14, align 4, !tbaa !17
  %46 = load ptr, ptr %5, align 8, !tbaa !8
  %47 = load i32, ptr %11, align 4, !tbaa !17
  %48 = sext i32 %47 to i64
  %49 = getelementptr inbounds i8, ptr %46, i64 %48
  %50 = getelementptr inbounds i8, ptr %49, i64 0
  %51 = load i32, ptr %14, align 4, !tbaa !17
  %52 = call i32 @llvm.bswap.i32(i32 %51)
  call void @mbedtls_put_unaligned_uint32(ptr noundef %50, i32 noundef %52)
  %53 = load i32, ptr %15, align 4, !tbaa !17
  store i32 %53, ptr %10, align 4, !tbaa !17
  call void @llvm.lifetime.end.p0(i64 4, ptr %15) #11
  call void @llvm.lifetime.end.p0(i64 4, ptr %14) #11
  br label %54

54:                                               ; preds = %32
  %55 = load i32, ptr %11, align 4, !tbaa !17
  %56 = sub nsw i32 %55, 4
  store i32 %56, ptr %11, align 4, !tbaa !17
  br label %29, !llvm.loop !37

57:                                               ; preds = %29
  %58 = load ptr, ptr %6, align 8, !tbaa !8
  %59 = getelementptr inbounds i8, ptr %58, i64 0
  %60 = load i8, ptr %59, align 1, !tbaa !26
  %61 = zext i8 %60 to i32
  %62 = ashr i32 %61, 7
  %63 = sext i32 %62 to i64
  %64 = call i64 @mbedtls_ct_bool(i64 noundef %63)
  %65 = load i8, ptr %9, align 1, !tbaa !26
  %66 = zext i8 %65 to i32
  %67 = call i32 @mbedtls_ct_uint_if_else_0(i64 noundef %64, i32 noundef %66)
  %68 = trunc i32 %67 to i8
  store i8 %68, ptr %9, align 1, !tbaa !26
  %69 = load i8, ptr %9, align 1, !tbaa !26
  %70 = zext i8 %69 to i32
  %71 = load ptr, ptr %5, align 8, !tbaa !8
  %72 = load i64, ptr %7, align 8, !tbaa !10
  %73 = sub i64 %72, 1
  %74 = getelementptr inbounds nuw i8, ptr %71, i64 %73
  %75 = load i8, ptr %74, align 1, !tbaa !26
  %76 = zext i8 %75 to i32
  %77 = xor i32 %76, %70
  %78 = trunc i32 %77 to i8
  store i8 %78, ptr %74, align 1, !tbaa !26
  store i32 0, ptr %4, align 4
  store i32 1, ptr %13, align 4
  br label %79

79:                                               ; preds = %57, %23
  call void @llvm.lifetime.end.p0(i64 4, ptr %11) #11
  call void @llvm.lifetime.end.p0(i64 4, ptr %10) #11
  call void @llvm.lifetime.end.p0(i64 1, ptr %9) #11
  call void @llvm.lifetime.end.p0(i64 1, ptr %8) #11
  %80 = load i32, ptr %4, align 4
  ret i32 %80
}

; Function Attrs: inlinehint nounwind uwtable
define internal i64 @mbedtls_cipher_info_get_block_size(ptr noundef %0) #3 {
  %2 = alloca i64, align 8
  %3 = alloca ptr, align 8
  store ptr %0, ptr %3, align 8, !tbaa !20
  %4 = load ptr, ptr %3, align 8, !tbaa !20
  %5 = icmp eq ptr %4, null
  br i1 %5, label %6, label %7

6:                                                ; preds = %1
  store i64 0, ptr %2, align 8
  br label %13

7:                                                ; preds = %1
  %8 = load ptr, ptr %3, align 8, !tbaa !20
  %9 = getelementptr inbounds nuw %struct.mbedtls_cipher_info_t, ptr %8, i32 0, i32 1
  %10 = load i32, ptr %9, align 8
  %11 = and i32 %10, 31
  %12 = zext i32 %11 to i64
  store i64 %12, ptr %2, align 8
  br label %13

13:                                               ; preds = %7, %6
  %14 = load i64, ptr %2, align 8
  ret i64 %14
}

; Function Attrs: nounwind uwtable
define internal i32 @cmac_generate_subkeys(ptr noundef %0, ptr noundef %1, ptr noundef %2) #0 {
  %4 = alloca ptr, align 8
  %5 = alloca ptr, align 8
  %6 = alloca ptr, align 8
  %7 = alloca i32, align 4
  %8 = alloca [16 x i8], align 16
  %9 = alloca i64, align 8
  %10 = alloca i64, align 8
  store ptr %0, ptr %4, align 8, !tbaa !3
  store ptr %1, ptr %5, align 8, !tbaa !8
  store ptr %2, ptr %6, align 8, !tbaa !8
  call void @llvm.lifetime.start.p0(i64 4, ptr %7) #11
  store i32 -110, ptr %7, align 4, !tbaa !17
  call void @llvm.lifetime.start.p0(i64 16, ptr %8) #11
  call void @llvm.lifetime.start.p0(i64 8, ptr %9) #11
  call void @llvm.lifetime.start.p0(i64 8, ptr %10) #11
  %11 = getelementptr inbounds [16 x i8], ptr %8, i64 0, i64 0
  call void @mbedtls_platform_zeroize(ptr noundef %11, i64 noundef 16)
  %12 = load ptr, ptr %4, align 8, !tbaa !3
  %13 = getelementptr inbounds nuw %struct.mbedtls_cipher_context_t, ptr %12, i32 0, i32 0
  %14 = load ptr, ptr %13, align 8, !tbaa !12
  %15 = call i64 @mbedtls_cipher_info_get_block_size(ptr noundef %14)
  store i64 %15, ptr %10, align 8, !tbaa !10
  %16 = load ptr, ptr %4, align 8, !tbaa !3
  %17 = getelementptr inbounds [16 x i8], ptr %8, i64 0, i64 0
  %18 = load i64, ptr %10, align 8, !tbaa !10
  %19 = getelementptr inbounds [16 x i8], ptr %8, i64 0, i64 0
  %20 = call i32 @mbedtls_cipher_update(ptr noundef %16, ptr noundef %17, i64 noundef %18, ptr noundef %19, ptr noundef %9)
  store i32 %20, ptr %7, align 4, !tbaa !17
  %21 = icmp ne i32 %20, 0
  br i1 %21, label %22, label %23

22:                                               ; preds = %3
  br label %38

23:                                               ; preds = %3
  %24 = load ptr, ptr %5, align 8, !tbaa !8
  %25 = getelementptr inbounds [16 x i8], ptr %8, i64 0, i64 0
  %26 = load i64, ptr %10, align 8, !tbaa !10
  %27 = call i32 @cmac_multiply_by_u(ptr noundef %24, ptr noundef %25, i64 noundef %26)
  store i32 %27, ptr %7, align 4, !tbaa !17
  %28 = icmp ne i32 %27, 0
  br i1 %28, label %29, label %30

29:                                               ; preds = %23
  br label %38

30:                                               ; preds = %23
  %31 = load ptr, ptr %6, align 8, !tbaa !8
  %32 = load ptr, ptr %5, align 8, !tbaa !8
  %33 = load i64, ptr %10, align 8, !tbaa !10
  %34 = call i32 @cmac_multiply_by_u(ptr noundef %31, ptr noundef %32, i64 noundef %33)
  store i32 %34, ptr %7, align 4, !tbaa !17
  %35 = icmp ne i32 %34, 0
  br i1 %35, label %36, label %37

36:                                               ; preds = %30
  br label %38

37:                                               ; preds = %30
  br label %38

38:                                               ; preds = %37, %36, %29, %22
  %39 = getelementptr inbounds [16 x i8], ptr %8, i64 0, i64 0
  call void @mbedtls_platform_zeroize(ptr noundef %39, i64 noundef 16)
  %40 = load i32, ptr %7, align 4, !tbaa !17
  call void @llvm.lifetime.end.p0(i64 8, ptr %10) #11
  call void @llvm.lifetime.end.p0(i64 8, ptr %9) #11
  call void @llvm.lifetime.end.p0(i64 16, ptr %8) #11
  call void @llvm.lifetime.end.p0(i64 4, ptr %7) #11
  ret i32 %40
}