; Function Attrs: nounwind uwtable
define internal fastcc i32 @cmac_generate_subkeys(ptr noundef nonnull %0, ptr noundef nonnull captures(none) %1, ptr noundef nonnull captures(none) %2) unnamed_addr #0 {
  %4 = alloca [16 x i8], align 16
  %5 = alloca i64, align 8
  call void @llvm.lifetime.start.p0(i64 16, ptr nonnull %4) #13
  call void @llvm.lifetime.start.p0(i64 8, ptr nonnull %5) #13
  call void @mbedtls_platform_zeroize(ptr noundef nonnull %4, i64 noundef 16) #13
  %6 = load ptr, ptr %0, align 8, !tbaa !3
  %7 = icmp eq ptr %6, null
  br i1 %7, label %mbedtls_cipher_info_get_block_size.exit, label %8

8:                                                ; preds = %3
  %9 = getelementptr inbounds nuw i8, ptr %6, i64 8
  %10 = load i32, ptr %9, align 8
  %11 = and i32 %10, 31
  %12 = zext nneg i32 %11 to i64
  br label %mbedtls_cipher_info_get_block_size.exit

mbedtls_cipher_info_get_block_size.exit:          ; preds = %3, %8
  %.0.i = phi i64 [ %12, %8 ], [ 0, %3 ]
  %13 = call i32 @mbedtls_cipher_update(ptr noundef nonnull %0, ptr noundef nonnull %4, i64 noundef %.0.i, ptr noundef nonnull %4, ptr noundef nonnull %5) #13
  %.not = icmp eq i32 %13, 0
  br i1 %.not, label %14, label %cmac_multiply_by_u.exit

14:                                               ; preds = %mbedtls_cipher_info_get_block_size.exit
  switch i64 %.0.i, label %cmac_multiply_by_u.exit [
    i64 16, label %.lr.ph.preheader.i
    i64 8, label %15
  ]

15:                                               ; preds = %14
  br label %.lr.ph.preheader.i

.lr.ph.preheader.i:                               ; preds = %15, %14
  %.019.i = phi i8 [ 27, %15 ], [ -121, %14 ]
  br label %.lr.ph.i

.lr.ph.i:                                         ; preds = %.lr.ph.i, %.lr.ph.preheader.i
  %indvars.iv.i = phi i64 [ %.0.i, %.lr.ph.preheader.i ], [ %indvars.iv.next.i, %.lr.ph.i ]
  %.02024.i = phi i32 [ 0, %.lr.ph.preheader.i ], [ %18, %.lr.ph.i ]
  %indvars.iv.next.i = add nsw i64 %indvars.iv.i, -4
  %16 = getelementptr inbounds nuw i8, ptr %4, i64 %indvars.iv.next.i
  %.0.copyload.i.i = load i32, ptr %16, align 1
  %17 = call i32 @llvm.bswap.i32(i32 %.0.copyload.i.i)
  %18 = lshr i32 %17, 31
  %19 = shl i32 %17, 1
  %20 = or disjoint i32 %19, %.02024.i
  %21 = getelementptr inbounds nuw i8, ptr %1, i64 %indvars.iv.next.i
  %22 = call i32 @llvm.bswap.i32(i32 %20)
  store i32 %22, ptr %21, align 1
  %23 = icmp samesign ugt i64 %indvars.iv.i, 7
  br i1 %23, label %.lr.ph.i, label %24, !llvm.loop !23

24:                                               ; preds = %.lr.ph.i
  %25 = load i8, ptr %4, align 16, !tbaa !17
  %26 = lshr i8 %25, 7
  %27 = zext nneg i8 %26 to i64
  %28 = call i64 asm sideeffect "mov  $1, $0                                \0A\09neg  $0                                      \0A\09or   $1, $0                                \0A\09sar  $$63, $0                                 \0A\09", "=&{ax},{di},~{dirflag},~{fpsr},~{flags}"(i64 range(i64 0, 2) %27) #13, !srcloc !24
  %29 = trunc i64 %28 to i8
  %30 = and i8 %.019.i, %29
  %31 = getelementptr i8, ptr %1, i64 %.0.i
  %32 = getelementptr i8, ptr %31, i64 -1
  %33 = load i8, ptr %32, align 1, !tbaa !17
  %34 = xor i8 %30, %33
  store i8 %34, ptr %32, align 1, !tbaa !17
  switch i64 %.0.i, label %cmac_multiply_by_u.exit [
    i64 16, label %.lr.ph.preheader.i12
    i64 8, label %35
  ]

35:                                               ; preds = %24
  br label %.lr.ph.preheader.i12

.lr.ph.preheader.i12:                             ; preds = %35, %24
  %.019.i13 = phi i8 [ 27, %35 ], [ -121, %24 ]
  br label %.lr.ph.i14

.lr.ph.i14:                                       ; preds = %.lr.ph.i14, %.lr.ph.preheader.i12
  %indvars.iv.i15 = phi i64 [ %.0.i, %.lr.ph.preheader.i12 ], [ %indvars.iv.next.i17, %.lr.ph.i14 ]
  %.02024.i16 = phi i32 [ 0, %.lr.ph.preheader.i12 ], [ %38, %.lr.ph.i14 ]
  %indvars.iv.next.i17 = add nsw i64 %indvars.iv.i15, -4
  %36 = getelementptr inbounds nuw i8, ptr %1, i64 %indvars.iv.next.i17
  %.0.copyload.i.i18 = load i32, ptr %36, align 1
  %37 = call i32 @llvm.bswap.i32(i32 %.0.copyload.i.i18)
  %38 = lshr i32 %37, 31
  %39 = shl i32 %37, 1
  %40 = or disjoint i32 %39, %.02024.i16
  %41 = getelementptr inbounds nuw i8, ptr %2, i64 %indvars.iv.next.i17
  %42 = call i32 @llvm.bswap.i32(i32 %40)
  store i32 %42, ptr %41, align 1
  %43 = icmp samesign ugt i64 %indvars.iv.i15, 7
  br i1 %43, label %.lr.ph.i14, label %._crit_edge.i19, !llvm.loop !23

._crit_edge.i19:                                  ; preds = %.lr.ph.i14
  %44 = load i8, ptr %1, align 1, !tbaa !17
  %45 = lshr i8 %44, 7
  %46 = zext nneg i8 %45 to i64
  %47 = call i64 asm sideeffect "mov  $1, $0                                \0A\09neg  $0                                      \0A\09or   $1, $0                                \0A\09sar  $$63, $0                                 \0A\09", "=&{ax},{di},~{dirflag},~{fpsr},~{flags}"(i64 range(i64 0, 2) %46) #13, !srcloc !24
  %48 = trunc i64 %47 to i8
  %49 = and i8 %.019.i13, %48
  %50 = getelementptr i8, ptr %2, i64 %.0.i
  %51 = getelementptr i8, ptr %50, i64 -1
  %52 = load i8, ptr %51, align 1, !tbaa !17
  %53 = xor i8 %49, %52
  store i8 %53, ptr %51, align 1, !tbaa !17
  br label %cmac_multiply_by_u.exit

cmac_multiply_by_u.exit:                          ; preds = %._crit_edge.i19, %24, %14, %mbedtls_cipher_info_get_block_size.exit
  %.0 = phi i32 [ %13, %mbedtls_cipher_info_get_block_size.exit ], [ -24832, %14 ], [ 0, %._crit_edge.i19 ], [ -24832, %24 ]
  call void @mbedtls_platform_zeroize(ptr noundef nonnull %4, i64 noundef 16) #13
  call void @llvm.lifetime.end.p0(i64 8, ptr nonnull %5) #13
  call void @llvm.lifetime.end.p0(i64 16, ptr nonnull %4) #13
  ret i32 %.0
}